; ModuleID = '39/609.c'
source_filename = "39/609.c"
target datalayout = "e-m:e-p270:32:32-p271:32:32-p272:64:64-i64:64-f80:128-n8:16:32:64-S128"
target triple = "x86_64-pc-linux-gnu"

%struct.scholar = type { [21 x i8], i32, i32, i8, i8, i32, i32 }

@.str = private unnamed_addr constant [3 x i8] c"%d\00", align 1
@.str.1 = private unnamed_addr constant [18 x i8] c"%s %d %d %c %c %d\00", align 1
@.str.2 = private unnamed_addr constant [10 x i8] c"%s\0A%d\0A%d\0A\00", align 1

; Function Attrs: noinline nounwind uwtable
define dso_local i32 @main() #0 {
  %1 = alloca i32, align 4
  %2 = alloca [1000 x %struct.scholar], align 16
  %3 = alloca i32, align 4
  %4 = alloca i32, align 4
  %5 = alloca i32, align 4
  %6 = alloca [22 x i8], align 16
  %7 = alloca i32, align 4
  store i32 0, i32* %1, align 4
  %8 = call i32 (i8*, ...) @__isoc99_scanf(i8* getelementptr inbounds ([3 x i8], [3 x i8]* @.str, i64 0, i64 0), i32* %3)
  store i32 0, i32* %4, align 4
  br label %9

9:                                                ; preds = %44, %0
  %10 = load i32, i32* %4, align 4
  %11 = load i32, i32* %3, align 4
  %12 = icmp slt i32 %10, %11
  br i1 %12, label %13, label %47

13:                                               ; preds = %9
  %14 = load i32, i32* %4, align 4
  %15 = sext i32 %14 to i64
  %16 = getelementptr inbounds [1000 x %struct.scholar], [1000 x %struct.scholar]* %2, i64 0, i64 %15
  %17 = getelementptr inbounds %struct.scholar, %struct.scholar* %16, i32 0, i32 0
  %18 = getelementptr inbounds [21 x i8], [21 x i8]* %17, i64 0, i64 0
  %19 = load i32, i32* %4, align 4
  %20 = sext i32 %19 to i64
  %21 = getelementptr inbounds [1000 x %struct.scholar], [1000 x %struct.scholar]* %2, i64 0, i64 %20
  %22 = getelementptr inbounds %struct.scholar, %struct.scholar* %21, i32 0, i32 1
  %23 = load i32, i32* %4, align 4
  %24 = sext i32 %23 to i64
  %25 = getelementptr inbounds [1000 x %struct.scholar], [1000 x %struct.scholar]* %2, i64 0, i64 %24
  %26 = getelementptr inbounds %struct.scholar, %struct.scholar* %25, i32 0, i32 2
  %27 = load i32, i32* %4, align 4
  %28 = sext i32 %27 to i64
  %29 = getelementptr inbounds [1000 x %struct.scholar], [1000 x %struct.scholar]* %2, i64 0, i64 %28
  %30 = getelementptr inbounds %struct.scholar, %struct.scholar* %29, i32 0, i32 3
  %31 = load i32, i32* %4, align 4
  %32 = sext i32 %31 to i64
  %33 = getelementptr inbounds [1000 x %struct.scholar], [1000 x %struct.scholar]* %2, i64 0, i64 %32
  %34 = getelementptr inbounds %struct.scholar, %struct.scholar* %33, i32 0, i32 4
  %35 = load i32, i32* %4, align 4
  %36 = sext i32 %35 to i64
  %37 = getelementptr inbounds [1000 x %struct.scholar], [1000 x %struct.scholar]* %2, i64 0, i64 %36
  %38 = getelementptr inbounds %struct.scholar, %struct.scholar* %37, i32 0, i32 5
  %39 = call i32 (i8*, ...) @__isoc99_scanf(i8* getelementptr inbounds ([18 x i8], [18 x i8]* @.str.1, i64 0, i64 0), i8* %18, i32* %22, i32* %26, i8* %30, i8* %34, i32* %38)
  %40 = load i32, i32* %4, align 4
  %41 = sext i32 %40 to i64
  %42 = getelementptr inbounds [1000 x %struct.scholar], [1000 x %struct.scholar]* %2, i64 0, i64 %41
  %43 = getelementptr inbounds %struct.scholar, %struct.scholar* %42, i32 0, i32 6
  store i32 0, i32* %43, align 4
  br label %44

44:                                               ; preds = %13
  %45 = load i32, i32* %4, align 4
  %46 = add nsw i32 %45, 1
  store i32 %46, i32* %4, align 4
  br label %9

47:                                               ; preds = %9
  store i32 0, i32* %4, align 4
  br label %48

48:                                               ; preds = %153, %47
  %49 = load i32, i32* %4, align 4
  %50 = load i32, i32* %3, align 4
  %51 = icmp slt i32 %49, %50
  br i1 %51, label %52, label %156

52:                                               ; preds = %48
  %53 = load i32, i32* %4, align 4
  %54 = sext i32 %53 to i64
  %55 = getelementptr inbounds [1000 x %struct.scholar], [1000 x %struct.scholar]* %2, i64 0, i64 %54
  %56 = getelementptr inbounds %struct.scholar, %struct.scholar* %55, i32 0, i32 1
  %57 = load i32, i32* %56, align 4
  %58 = icmp sgt i32 %57, 80
  br i1 %58, label %59, label %73

59:                                               ; preds = %52
  %60 = load i32, i32* %4, align 4
  %61 = sext i32 %60 to i64
  %62 = getelementptr inbounds [1000 x %struct.scholar], [1000 x %struct.scholar]* %2, i64 0, i64 %61
  %63 = getelementptr inbounds %struct.scholar, %struct.scholar* %62, i32 0, i32 5
  %64 = load i32, i32* %63, align 4
  %65 = icmp sgt i32 %64, 0
  br i1 %65, label %66, label %73

66:                                               ; preds = %59
  %67 = load i32, i32* %4, align 4
  %68 = sext i32 %67 to i64
  %69 = getelementptr inbounds [1000 x %struct.scholar], [1000 x %struct.scholar]* %2, i64 0, i64 %68
  %70 = getelementptr inbounds %struct.scholar, %struct.scholar* %69, i32 0, i32 6
  %71 = load i32, i32* %70, align 4
  %72 = add nsw i32 %71, 8000
  store i32 %72, i32* %70, align 4
  br label %73

73:                                               ; preds = %66, %59, %52
  %74 = load i32, i32* %4, align 4
  %75 = sext i32 %74 to i64
  %76 = getelementptr inbounds [1000 x %struct.scholar], [1000 x %struct.scholar]* %2, i64 0, i64 %75
  %77 = getelementptr inbounds %struct.scholar, %struct.scholar* %76, i32 0, i32 1
  %78 = load i32, i32* %77, align 4
  %79 = icmp sgt i32 %78, 85
  br i1 %79, label %80, label %94

80:                                               ; preds = %73
  %81 = load i32, i32* %4, align 4
  %82 = sext i32 %81 to i64
  %83 = getelementptr inbounds [1000 x %struct.scholar], [1000 x %struct.scholar]* %2, i64 0, i64 %82
  %84 = getelementptr inbounds %struct.scholar, %struct.scholar* %83, i32 0, i32 2
  %85 = load i32, i32* %84, align 4
  %86 = icmp sgt i32 %85, 80
  br i1 %86, label %87, label %94

87:                                               ; preds = %80
  %88 = load i32, i32* %4, align 4
  %89 = sext i32 %88 to i64
  %90 = getelementptr inbounds [1000 x %struct.scholar], [1000 x %struct.scholar]* %2, i64 0, i64 %89
  %91 = getelementptr inbounds %struct.scholar, %struct.scholar* %90, i32 0, i32 6
  %92 = load i32, i32* %91, align 4
  %93 = add nsw i32 %92, 4000
  store i32 %93, i32* %91, align 4
  br label %94

94:                                               ; preds = %87, %80, %73
  %95 = load i32, i32* %4, align 4
  %96 = sext i32 %95 to i64
  %97 = getelementptr inbounds [1000 x %struct.scholar], [1000 x %struct.scholar]* %2, i64 0, i64 %96
  %98 = getelementptr inbounds %struct.scholar, %struct.scholar* %97, i32 0, i32 1
  %99 = load i32, i32* %98, align 4
  %100 = icmp sgt i32 %99, 90
  br i1 %100, label %101, label %108

101:                                              ; preds = %94
  %102 = load i32, i32* %4, align 4
  %103 = sext i32 %102 to i64
  %104 = getelementptr inbounds [1000 x %struct.scholar], [1000 x %struct.scholar]* %2, i64 0, i64 %103
  %105 = getelementptr inbounds %struct.scholar, %struct.scholar* %104, i32 0, i32 6
  %106 = load i32, i32* %105, align 4
  %107 = add nsw i32 %106, 2000
  store i32 %107, i32* %105, align 4
  br label %108

108:                                              ; preds = %101, %94
  %109 = load i32, i32* %4, align 4
  %110 = sext i32 %109 to i64
  %111 = getelementptr inbounds [1000 x %struct.scholar], [1000 x %struct.scholar]* %2, i64 0, i64 %110
  %112 = getelementptr inbounds %struct.scholar, %struct.scholar* %111, i32 0, i32 1
  %113 = load i32, i32* %112, align 4
  %114 = icmp sgt i32 %113, 85
  br i1 %114, label %115, label %130

115:                                              ; preds = %108
  %116 = load i32, i32* %4, align 4
  %117 = sext i32 %116 to i64
  %118 = getelementptr inbounds [1000 x %struct.scholar], [1000 x %struct.scholar]* %2, i64 0, i64 %117
  %119 = getelementptr inbounds %struct.scholar, %struct.scholar* %118, i32 0, i32 4
  %120 = load i8, i8* %119, align 1
  %121 = sext i8 %120 to i32
  %122 = icmp eq i32 %121, 89
  br i1 %122, label %123, label %130

123:                                              ; preds = %115
  %124 = load i32, i32* %4, align 4
  %125 = sext i32 %124 to i64
  %126 = getelementptr inbounds [1000 x %struct.scholar], [1000 x %struct.scholar]* %2, i64 0, i64 %125
  %127 = getelementptr inbounds %struct.scholar, %struct.scholar* %126, i32 0, i32 6
  %128 = load i32, i32* %127, align 4
  %129 = add nsw i32 %128, 1000
  store i32 %129, i32* %127, align 4
  br label %130

130:                                              ; preds = %123, %115, %108
  %131 = load i32, i32* %4, align 4
  %132 = sext i32 %131 to i64
  %133 = getelementptr inbounds [1000 x %struct.scholar], [1000 x %struct.scholar]* %2, i64 0, i64 %132
  %134 = getelementptr inbounds %struct.scholar, %struct.scholar* %133, i32 0, i32 2
  %135 = load i32, i32* %134, align 4
  %136 = icmp sgt i32 %135, 80
  br i1 %136, label %137, label %152

137:                                              ; preds = %130
  %138 = load i32, i32* %4, align 4
  %139 = sext i32 %138 to i64
  %140 = getelementptr inbounds [1000 x %struct.scholar], [1000 x %struct.scholar]* %2, i64 0, i64 %139
  %141 = getelementptr inbounds %struct.scholar, %struct.scholar* %140, i32 0, i32 3
  %142 = load i8, i8* %141, align 4
  %143 = sext i8 %142 to i32
  %144 = icmp eq i32 %143, 89
  br i1 %144, label %145, label %152

145:                                              ; preds = %137
  %146 = load i32, i32* %4, align 4
  %147 = sext i32 %146 to i64
  %148 = getelementptr inbounds [1000 x %struct.scholar], [1000 x %struct.scholar]* %2, i64 0, i64 %147
  %149 = getelementptr inbounds %struct.scholar, %struct.scholar* %148, i32 0, i32 6
  %150 = load i32, i32* %149, align 4
  %151 = add nsw i32 %150, 850
  store i32 %151, i32* %149, align 4
  br label %152

152:                                              ; preds = %145, %137, %130
  br label %153

153:                                              ; preds = %152
  %154 = load i32, i32* %4, align 4
  %155 = add nsw i32 %154, 1
  store i32 %155, i32* %4, align 4
  br label %48

156:                                              ; preds = %48
  store i32 0, i32* %5, align 4
  store i32 0, i32* %7, align 4
  store i32 0, i32* %4, align 4
  br label %157

157:                                              ; preds = %190, %156
  %158 = load i32, i32* %4, align 4
  %159 = load i32, i32* %3, align 4
  %160 = icmp slt i32 %158, %159
  br i1 %160, label %161, label %193

161:                                              ; preds = %157
  %162 = load i32, i32* %4, align 4
  %163 = sext i32 %162 to i64
  %164 = getelementptr inbounds [1000 x %struct.scholar], [1000 x %struct.scholar]* %2, i64 0, i64 %163
  %165 = getelementptr inbounds %struct.scholar, %struct.scholar* %164, i32 0, i32 6
  %166 = load i32, i32* %165, align 4
  %167 = load i32, i32* %5, align 4
  %168 = icmp sgt i32 %166, %167
  br i1 %168, label %169, label %182

169:                                              ; preds = %161
  %170 = load i32, i32* %4, align 4
  %171 = sext i32 %170 to i64
  %172 = getelementptr inbounds [1000 x %struct.scholar], [1000 x %struct.scholar]* %2, i64 0, i64 %171
  %173 = getelementptr inbounds %struct.scholar, %struct.scholar* %172, i32 0, i32 6
  %174 = load i32, i32* %173, align 4
  store i32 %174, i32* %5, align 4
  %175 = getelementptr inbounds [22 x i8], [22 x i8]* %6, i64 0, i64 0
  %176 = load i32, i32* %4, align 4
  %177 = sext i32 %176 to i64
  %178 = getelementptr inbounds [1000 x %struct.scholar], [1000 x %struct.scholar]* %2, i64 0, i64 %177
  %179 = getelementptr inbounds %struct.scholar, %struct.scholar* %178, i32 0, i32 0
  %180 = getelementptr inbounds [21 x i8], [21 x i8]* %179, i64 0, i64 0
  %181 = call i8* @strcpy(i8* %175, i8* %180) #3
  br label %182

182:                                              ; preds = %169, %161
  %183 = load i32, i32* %4, align 4
  %184 = sext i32 %183 to i64
  %185 = getelementptr inbounds [1000 x %struct.scholar], [1000 x %struct.scholar]* %2, i64 0, i64 %184
  %186 = getelementptr inbounds %struct.scholar, %struct.scholar* %185, i32 0, i32 6
  %187 = load i32, i32* %186, align 4
  %188 = load i32, i32* %7, align 4
  %189 = add nsw i32 %188, %187
  store i32 %189, i32* %7, align 4
  br label %190

190:                                              ; preds = %182
  %191 = load i32, i32* %4, align 4
  %192 = add nsw i32 %191, 1
  store i32 %192, i32* %4, align 4
  br label %157

193:                                              ; preds = %157
  %194 = getelementptr inbounds [22 x i8], [22 x i8]* %6, i64 0, i64 0
  %195 = load i32, i32* %5, align 4
  %196 = load i32, i32* %7, align 4
  %197 = call i32 (i8*, ...) @printf(i8* getelementptr inbounds ([10 x i8], [10 x i8]* @.str.2, i64 0, i64 0), i8* %194, i32 %195, i32 %196)
  ret i32 0
}

declare dso_local i32 @__isoc99_scanf(i8*, ...) #1

; Function Attrs: nounwind
declare dso_local i8* @strcpy(i8*, i8*) #2

declare dso_local i32 @printf(i8*, ...) #1


!llvm.module.flags = !{!0}
!llvm.ident = !{!1}

!0 = !{i32 1, !"wchar_size", i32 4}
!1 = !{!"clang version 10.0.0-4ubuntu1 "}
